target datalayout = "e-m:e-p270:32:32-p271:32:32-p272:64:64-i64:64-i128:128-f80:128-n8:16:32:64-S128"
target triple = "x86_64-pc-linux-gnu"

%struct.AVFilterContext = type { ptr, ptr, ptr, ptr, ptr, i32, ptr, ptr, i32, ptr, ptr, i32, i32, ptr, ptr, ptr, ptr, i32, ptr, i32, i32 }
%struct.MedianContext = type { ptr, i32, i32, i32, float, [4 x i32], [4 x i32], i32, i32, i32, ptr, ptr, i32, i32, i32, i32, ptr, ptr, ptr, ptr }

; Function Attrs: cold nounwind optsize uwtable
define internal void @uninit(ptr noundef %0) #0 {
  %2 = alloca ptr, align 8
  %3 = alloca ptr, align 8
  %4 = alloca i32, align 4
  store ptr %0, ptr %2, align 8, !tbaa !4
  call void @llvm.lifetime.start.p0(i64 8, ptr %3) #8
  %5 = load ptr, ptr %2, align 8, !tbaa !4
  %6 = getelementptr inbounds nuw %struct.AVFilterContext, ptr %5, i32 0, i32 9
  %7 = load ptr, ptr %6, align 8, !tbaa !9
  store ptr %7, ptr %3, align 8, !tbaa !22
  call void @llvm.lifetime.start.p0(i64 4, ptr %4) #8
  store i32 0, ptr %4, align 4, !tbaa !24
  br label %8

8:                                                ; preds = %40, %1
  %9 = load i32, ptr %4, align 4, !tbaa !24
  %10 = load ptr, ptr %3, align 8, !tbaa !22
  %11 = getelementptr inbounds nuw %struct.MedianContext, ptr %10, i32 0, i32 9
  %12 = load i32, ptr %11, align 8, !tbaa !25
  %13 = icmp slt i32 %9, %12
  br i1 %13, label %14, label %24

14:                                               ; preds = %8
  %15 = load ptr, ptr %3, align 8, !tbaa !22
  %16 = getelementptr inbounds nuw %struct.MedianContext, ptr %15, i32 0, i32 10
  %17 = load ptr, ptr %16, align 8, !tbaa !29
  %18 = icmp ne ptr %17, null
  br i1 %18, label %19, label %24

19:                                               ; preds = %14
  %20 = load ptr, ptr %3, align 8, !tbaa !22
  %21 = getelementptr inbounds nuw %struct.MedianContext, ptr %20, i32 0, i32 11
  %22 = load ptr, ptr %21, align 8, !tbaa !30
  %23 = icmp ne ptr %22, null
  br label %24

24:                                               ; preds = %19, %14, %8
  %25 = phi i1 [ false, %14 ], [ false, %8 ], [ %23, %19 ]
  br i1 %25, label %27, label %26

26:                                               ; preds = %24
  call void @llvm.lifetime.end.p0(i64 4, ptr %4) #8
  br label %43

27:                                               ; preds = %24
  %28 = load ptr, ptr %3, align 8, !tbaa !22
  %29 = getelementptr inbounds nuw %struct.MedianContext, ptr %28, i32 0, i32 10
  %30 = load ptr, ptr %29, align 8, !tbaa !29
  %31 = load i32, ptr %4, align 4, !tbaa !24
  %32 = sext i32 %31 to i64
  %33 = getelementptr inbounds ptr, ptr %30, i64 %32
  call void @av_freep(ptr noundef %33)
  %34 = load ptr, ptr %3, align 8, !tbaa !22
  %35 = getelementptr inbounds nuw %struct.MedianContext, ptr %34, i32 0, i32 11
  %36 = load ptr, ptr %35, align 8, !tbaa !30
  %37 = load i32, ptr %4, align 4, !tbaa !24
  %38 = sext i32 %37 to i64
  %39 = getelementptr inbounds ptr, ptr %36, i64 %38
  call void @av_freep(ptr noundef %39)
  br label %40

40:                                               ; preds = %27
  %41 = load i32, ptr %4, align 4, !tbaa !24
  %42 = add nsw i32 %41, 1
  store i32 %42, ptr %4, align 4, !tbaa !24
  br label %8, !llvm.loop !31

43:                                               ; preds = %26
  %44 = load ptr, ptr %3, align 8, !tbaa !22
  %45 = getelementptr inbounds nuw %struct.MedianContext, ptr %44, i32 0, i32 10
  call void @av_freep(ptr noundef %45)
  %46 = load ptr, ptr %3, align 8, !tbaa !22
  %47 = getelementptr inbounds nuw %struct.MedianContext, ptr %46, i32 0, i32 11
  call void @av_freep(ptr noundef %47)
  call void @llvm.lifetime.end.p0(i64 8, ptr %3) #8
  ret void
}