; Function Attrs: cold nounwind optsize uwtable
define internal void @uninit(ptr noundef readonly captures(none) %0) #0 {
  %2 = getelementptr inbounds nuw i8, ptr %0, i64 72
  %3 = load ptr, ptr %2, align 8, !tbaa !4
  %4 = getelementptr inbounds nuw i8, ptr %3, i64 72
  %5 = getelementptr inbounds nuw i8, ptr %3, i64 80
  %6 = getelementptr inbounds nuw i8, ptr %3, i64 64
  %7 = load i32, ptr %6, align 8, !tbaa !20
  %8 = icmp sgt i32 %7, 0
  br i1 %8, label %.lr.ph, label %.critedge

.lr.ph:                                           ; preds = %1, %12
  %indvars.iv = phi i64 [ %indvars.iv.next, %12 ], [ 0, %1 ]
  %9 = load ptr, ptr %4, align 8, !tbaa !24
  %.not = icmp eq ptr %9, null
  br i1 %.not, label %.critedge, label %10

10:                                               ; preds = %.lr.ph
  %11 = load ptr, ptr %5, align 8, !tbaa !25
  %.not12 = icmp eq ptr %11, null
  br i1 %.not12, label %.critedge, label %12

.critedge:                                        ; preds = %10, %12, %.lr.ph, %1
  tail call void @av_freep(ptr noundef nonnull %4) #9
  tail call void @av_freep(ptr noundef nonnull %5) #9
  ret void

12:                                               ; preds = %10
  %13 = getelementptr inbounds nuw ptr, ptr %9, i64 %indvars.iv
  tail call void @av_freep(ptr noundef nonnull %13) #9
  %14 = load ptr, ptr %5, align 8, !tbaa !25
  %15 = getelementptr inbounds nuw ptr, ptr %14, i64 %indvars.iv
  tail call void @av_freep(ptr noundef %15) #9
  %indvars.iv.next = add nuw nsw i64 %indvars.iv, 1
  %16 = load i32, ptr %6, align 8, !tbaa !20
  %17 = sext i32 %16 to i64
  %18 = icmp slt i64 %indvars.iv.next, %17
  br i1 %18, label %.lr.ph, label %.critedge, !llvm.loop !26
}